; Function Attrs: mustprogress nofree norecurse nosync nounwind willreturn memory(read, inaccessiblemem: none) uwtable
define internal noundef float @_ZNK5faiss12_GLOBAL__N_114IVFSQScannerL2INS0_10DCTemplateINS0_17QuantizerTemplateINS0_9Codec4bitELb1ELi1EEENS0_12SimilarityL2ILi1EEELi1EEELi1EE16distance_to_codeEPKh(ptr nocapture noundef nonnull readonly align 8 dereferenceable(144) %0, ptr nocapture noundef readonly %1) unnamed_addr #20 align 2 {
  %3 = getelementptr inbounds i8, ptr %0, i64 80
  %4 = load i64, ptr %3, align 8
  %.not.i.i = icmp eq i64 %4, 0
  br i1 %.not.i.i, label %_ZNK5faiss12_GLOBAL__N_110DCTemplateINS0_17QuantizerTemplateINS0_9Codec4bitELb1ELi1EEENS0_12SimilarityL2ILi1EEELi1EE13query_to_codeEPKh.exit, label %.lr.ph.i.i

.lr.ph.i.i:                                       ; preds = %2
  %5 = getelementptr inbounds i8, ptr %0, i64 64
  %6 = load ptr, ptr %5, align 8
  %7 = getelementptr inbounds i8, ptr %0, i64 88
  %8 = load float, ptr %7, align 8
  %9 = getelementptr inbounds i8, ptr %0, i64 92
  %10 = load float, ptr %9, align 4
  br label %11

11:                                               ; preds = %11, %.lr.ph.i.i
  %.022.i.i = phi i64 [ 0, %.lr.ph.i.i ], [ %30, %11 ]
  %.sroa.5.021.i.i = phi float [ 0.000000e+00, %.lr.ph.i.i ], [ %29, %11 ]
  %.sroa.2.020.i.i = phi ptr [ %6, %.lr.ph.i.i ], [ %26, %11 ]
  %12 = trunc i64 %.022.i.i to i32
  %13 = sdiv i32 %12, 2
  %14 = sext i32 %13 to i64
  %15 = getelementptr inbounds i8, ptr %1, i64 %14
  %16 = load i8, ptr %15, align 1
  %17 = zext i8 %16 to i32
  %18 = shl i32 %12, 2
  %19 = and i32 %18, 4
  %20 = lshr i32 %17, %19
  %21 = and i32 %20, 15
  %22 = sitofp i32 %21 to float
  %23 = fadd float %22, 5.000000e-01
  %24 = fdiv float %23, 1.500000e+01
  %25 = tail call noundef float @llvm.fmuladd.f32(float %24, float %10, float %8)
  %26 = getelementptr inbounds i8, ptr %.sroa.2.020.i.i, i64 4
  %27 = load float, ptr %.sroa.2.020.i.i, align 4
  %28 = fsub float %27, %25
  %29 = tail call float @llvm.fmuladd.f32(float %28, float %28, float %.sroa.5.021.i.i)
  %30 = add nuw i64 %.022.i.i, 1
  %exitcond.not.i.i = icmp eq i64 %30, %4
  br i1 %exitcond.not.i.i, label %_ZNK5faiss12_GLOBAL__N_110DCTemplateINS0_17QuantizerTemplateINS0_9Codec4bitELb1ELi1EEENS0_12SimilarityL2ILi1EEELi1EE13query_to_codeEPKh.exit, label %11, !llvm.loop !47

_ZNK5faiss12_GLOBAL__N_110DCTemplateINS0_17QuantizerTemplateINS0_9Codec4bitELb1ELi1EEENS0_12SimilarityL2ILi1EEELi1EE13query_to_codeEPKh.exit: ; preds = %11, %2
  %.sroa.5.0.lcssa.i.i = phi float [ 0.000000e+00, %2 ], [ %29, %11 ]
  ret float %.sroa.5.0.lcssa.i.i
}